; Function Attrs: nounwind uwtable
define internal i32 @test_CTX_set1_get0_pkey() #1 {
  %1 = tail call fastcc ptr @set_up(ptr noundef nonnull @.str.23)
  %2 = icmp eq ptr %1, null
  br i1 %2, label %59, label %3

3:                                                ; preds = %0
  %4 = getelementptr i8, ptr %1, i64 8
  %.val = load ptr, ptr %4, align 8, !tbaa !4
  %5 = tail call ptr @EVP_PKEY_new() #6
  %6 = tail call ptr @EVP_PKEY_new() #6
  %7 = tail call i64 @ERR_peek_error() #6
  %8 = trunc i64 %7 to i32
  %9 = tail call i32 @test_int_eq(ptr noundef nonnull @.str, i32 noundef 772, ptr noundef nonnull @.str.62, ptr noundef nonnull @.str.63, i32 noundef %8, i32 noundef 0) #6
  %10 = tail call i32 @OSSL_CMP_CTX_set1_pkey(ptr noundef null, ptr noundef %5) #6
  %.not30.i = icmp eq i32 %10, 0
  br i1 %.not30.i, label %11, label %14

11:                                               ; preds = %3
  %.not.i = icmp ne i32 %9, 0
  %spec.select.i = zext i1 %.not.i to i32
  %12 = tail call i64 @ERR_peek_error() #6
  %13 = icmp eq i64 %12, 0
  br i1 %13, label %14, label %15

14:                                               ; preds = %11, %3
  tail call void (ptr, i32, ptr, ...) @test_error(ptr noundef nonnull @.str, i32 noundef 772, ptr noundef nonnull @.str.64) #6
  br label %15

15:                                               ; preds = %14, %11
  %.1.i = phi i32 [ 0, %14 ], [ %spec.select.i, %11 ]
  tail call void @ERR_clear_error() #6
  tail call void @ERR_new() #6
  tail call void @ERR_set_debug(ptr noundef nonnull @.str, i32 noundef 772, ptr noundef nonnull @__func__.OSSL_CMP_CTX_get0_pkey) #6
  tail call void (i32, i32, ptr, ...) @ERR_set_error(i32 noundef 58, i32 noundef 103, ptr noundef null) #6
  %16 = tail call i64 @ERR_peek_error() #6
  %17 = icmp eq i64 %16, 0
  br i1 %17, label %18, label %19

18:                                               ; preds = %15
  tail call void (ptr, i32, ptr, ...) @test_error(ptr noundef nonnull @.str, i32 noundef 772, ptr noundef nonnull @.str.65) #6
  br label %19

19:                                               ; preds = %18, %15
  %.2.i = phi i32 [ 0, %18 ], [ %.1.i, %15 ]
  tail call void @ERR_clear_error() #6
  %20 = icmp eq ptr %.val, null
  br i1 %20, label %OSSL_CMP_CTX_get0_pkey.exit.thread.i, label %OSSL_CMP_CTX_get0_pkey.exit.i

OSSL_CMP_CTX_get0_pkey.exit.thread.i:             ; preds = %19
  tail call void @ERR_new() #6
  tail call void @ERR_set_debug(ptr noundef nonnull @.str, i32 noundef 772, ptr noundef nonnull @__func__.OSSL_CMP_CTX_get0_pkey) #6
  tail call void (i32, i32, ptr, ...) @ERR_set_error(i32 noundef 58, i32 noundef 103, ptr noundef null) #6
  br label %25

OSSL_CMP_CTX_get0_pkey.exit.i:                    ; preds = %19
  %21 = getelementptr inbounds nuw i8, ptr %.val, i64 216
  %22 = load ptr, ptr %21, align 8, !tbaa !54
  %23 = icmp eq ptr %22, null
  br i1 %23, label %25, label %24

24:                                               ; preds = %OSSL_CMP_CTX_get0_pkey.exit.i
  tail call void (ptr, i32, ptr, ...) @test_error(ptr noundef nonnull @.str, i32 noundef 772, ptr noundef nonnull @.str.66) #6
  br label %25

25:                                               ; preds = %24, %OSSL_CMP_CTX_get0_pkey.exit.i, %OSSL_CMP_CTX_get0_pkey.exit.thread.i
  %.3.i = phi i32 [ %.2.i, %OSSL_CMP_CTX_get0_pkey.exit.i ], [ 0, %24 ], [ %.2.i, %OSSL_CMP_CTX_get0_pkey.exit.thread.i ]
  %26 = tail call i32 @OSSL_CMP_CTX_set1_pkey(ptr noundef %.val, ptr noundef %5) #6
  %.not32.i = icmp eq i32 %26, 0
  br i1 %.not32.i, label %27, label %28

27:                                               ; preds = %25
  tail call void (ptr, i32, ptr, ...) @test_error(ptr noundef nonnull @.str, i32 noundef 772, ptr noundef nonnull @.str.67) #6
  br label %28

28:                                               ; preds = %27, %25
  %.4.i = phi i32 [ %.3.i, %25 ], [ 0, %27 ]
  br i1 %20, label %OSSL_CMP_CTX_get0_pkey.exit38.thread.i, label %OSSL_CMP_CTX_get0_pkey.exit38.i

OSSL_CMP_CTX_get0_pkey.exit38.thread.i:           ; preds = %28
  tail call void @ERR_new() #6
  tail call void @ERR_set_debug(ptr noundef nonnull @.str, i32 noundef 772, ptr noundef nonnull @__func__.OSSL_CMP_CTX_get0_pkey) #6
  tail call void (i32, i32, ptr, ...) @ERR_set_error(i32 noundef 58, i32 noundef 103, ptr noundef null) #6
  br label %32

OSSL_CMP_CTX_get0_pkey.exit38.i:                  ; preds = %28
  %29 = getelementptr inbounds nuw i8, ptr %.val, i64 216
  %30 = load ptr, ptr %29, align 8, !tbaa !54
  %31 = icmp eq ptr %30, null
  br i1 %31, label %32, label %33

32:                                               ; preds = %OSSL_CMP_CTX_get0_pkey.exit38.i, %OSSL_CMP_CTX_get0_pkey.exit38.thread.i
  tail call void (ptr, i32, ptr, ...) @test_error(ptr noundef nonnull @.str, i32 noundef 772, ptr noundef nonnull @.str.123) #6
  br label %33

33:                                               ; preds = %32, %OSSL_CMP_CTX_get0_pkey.exit38.i
  %.5.i = phi i32 [ 0, %32 ], [ %.4.i, %OSSL_CMP_CTX_get0_pkey.exit38.i ]
  %34 = tail call i32 @OSSL_CMP_CTX_set1_pkey(ptr noundef %.val, ptr noundef %6) #6
  %.not33.i = icmp eq i32 %34, 0
  br i1 %.not33.i, label %35, label %36

35:                                               ; preds = %33
  tail call void (ptr, i32, ptr, ...) @test_error(ptr noundef nonnull @.str, i32 noundef 772, ptr noundef nonnull @.str.69) #6
  br label %36

36:                                               ; preds = %35, %33
  %.6.i = phi i32 [ %.5.i, %33 ], [ 0, %35 ]
  br i1 %20, label %OSSL_CMP_CTX_get0_pkey.exit40.thread.i, label %OSSL_CMP_CTX_get0_pkey.exit40.i

OSSL_CMP_CTX_get0_pkey.exit40.thread.i:           ; preds = %36
  tail call void @ERR_new() #6
  tail call void @ERR_set_debug(ptr noundef nonnull @.str, i32 noundef 772, ptr noundef nonnull @__func__.OSSL_CMP_CTX_get0_pkey) #6
  tail call void (i32, i32, ptr, ...) @ERR_set_error(i32 noundef 58, i32 noundef 103, ptr noundef null) #6
  br label %40

OSSL_CMP_CTX_get0_pkey.exit40.i:                  ; preds = %36
  %37 = getelementptr inbounds nuw i8, ptr %.val, i64 216
  %38 = load ptr, ptr %37, align 8, !tbaa !54
  %39 = icmp eq ptr %38, null
  br i1 %39, label %40, label %41

40:                                               ; preds = %OSSL_CMP_CTX_get0_pkey.exit40.i, %OSSL_CMP_CTX_get0_pkey.exit40.thread.i
  tail call void (ptr, i32, ptr, ...) @test_error(ptr noundef nonnull @.str, i32 noundef 772, ptr noundef nonnull @.str.70) #6
  br label %41

41:                                               ; preds = %40, %OSSL_CMP_CTX_get0_pkey.exit40.i
  %.0.i394.i = phi ptr [ null, %40 ], [ %38, %OSSL_CMP_CTX_get0_pkey.exit40.i ]
  %.7.i = phi i32 [ 0, %40 ], [ %.6.i, %OSSL_CMP_CTX_get0_pkey.exit40.i ]
  %42 = icmp eq ptr %6, %5
  br i1 %42, label %43, label %44

43:                                               ; preds = %41
  tail call void (ptr, i32, ptr, ...) @test_error(ptr noundef nonnull @.str, i32 noundef 772, ptr noundef nonnull @.str.125) #6
  br label %44

44:                                               ; preds = %43, %41
  %.8.i = phi i32 [ 0, %43 ], [ %.7.i, %41 ]
  br i1 %20, label %OSSL_CMP_CTX_get0_pkey.exit42.thread.i, label %OSSL_CMP_CTX_get0_pkey.exit42.i

OSSL_CMP_CTX_get0_pkey.exit42.thread.i:           ; preds = %44
  tail call void @ERR_new() #6
  tail call void @ERR_set_debug(ptr noundef nonnull @.str, i32 noundef 772, ptr noundef nonnull @__func__.OSSL_CMP_CTX_get0_pkey) #6
  tail call void (i32, i32, ptr, ...) @ERR_set_error(i32 noundef 58, i32 noundef 103, ptr noundef null) #6
  br label %48

OSSL_CMP_CTX_get0_pkey.exit42.i:                  ; preds = %44
  %45 = getelementptr inbounds nuw i8, ptr %.val, i64 216
  %46 = load ptr, ptr %45, align 8, !tbaa !54
  %47 = icmp eq ptr %46, null
  br i1 %47, label %48, label %49

48:                                               ; preds = %OSSL_CMP_CTX_get0_pkey.exit42.i, %OSSL_CMP_CTX_get0_pkey.exit42.thread.i
  tail call void (ptr, i32, ptr, ...) @test_error(ptr noundef nonnull @.str, i32 noundef 772, ptr noundef nonnull @.str.72) #6
  br label %49

49:                                               ; preds = %48, %OSSL_CMP_CTX_get0_pkey.exit42.i
  %.0.i417.i = phi ptr [ null, %48 ], [ %46, %OSSL_CMP_CTX_get0_pkey.exit42.i ]
  %.9.i = phi i32 [ 0, %48 ], [ %.8.i, %OSSL_CMP_CTX_get0_pkey.exit42.i ]
  %.not34.i = icmp eq ptr %.0.i417.i, %.0.i394.i
  br i1 %.not34.i, label %tear_down.exit, label %50

50:                                               ; preds = %49
  tail call void (ptr, i32, ptr, ...) @test_error(ptr noundef nonnull @.str, i32 noundef 772, ptr noundef nonnull @.str.73) #6
  br label %tear_down.exit

tear_down.exit:                                   ; preds = %49, %50
  %.10.i = phi i32 [ 0, %50 ], [ %.9.i, %49 ]
  %51 = tail call i64 @ERR_peek_error() #6
  %52 = trunc i64 %51 to i32
  %53 = tail call i32 @test_int_eq(ptr noundef nonnull @.str, i32 noundef 772, ptr noundef nonnull @.str.62, ptr noundef nonnull @.str.63, i32 noundef %52, i32 noundef 0) #6
  %.not35.i = icmp ne i32 %53, 0
  tail call void @EVP_PKEY_free(ptr noundef %5) #6
  tail call void @EVP_PKEY_free(ptr noundef %6) #6
  %54 = icmp ne i32 %.10.i, 0
  %55 = select i1 %.not35.i, i1 %54, i1 false
  %56 = zext i1 %55 to i32
  %57 = tail call i32 @test_true(ptr noundef nonnull @.str, i32 noundef 772, ptr noundef nonnull @.str.74, i32 noundef %56) #6
  %58 = load ptr, ptr %4, align 8, !tbaa !4
  tail call void @OSSL_CMP_CTX_free(ptr noundef %58) #6
  tail call void @CRYPTO_free(ptr noundef nonnull %1, ptr noundef nonnull @.str, i32 noundef 25) #6
  br label %59

59:                                               ; preds = %0, %tear_down.exit
  %.05 = phi i32 [ %57, %tear_down.exit ], [ 0, %0 ]
  ret i32 %.05
}